c__builtin__
set
p0
((lp1
S'/wiki/Target_variable'
p2
aS'/wiki/Loss_function'
p3
aS'/wiki/Canonical_correlation_analysis'
p4
aS'/wiki/Pattern_recognition'
p5
aS'/wiki/Bias-variance_dilemma'
p6
aS'/wiki/Multilinear_subspace_learning'
p7
aS'/wiki/Discriminative_model'
p8
aS'/wiki/Computer_vision'
p9
aS'/wiki/Inductive_bias'
p10
aS'/wiki/Reinforcement_learning'
p11
aS'/wiki/Hierarchical_clustering'
p12
aS'/wiki/Linear_regression'
p13
aS'/wiki/Concept_learning'
p14
aS'/wiki/Feature_learning'
p15
aS'/wiki/Feature_selection'
p16
aS'/wiki/Statistical_learning_theory'
p17
aS'/wiki/Information_retrieval'
p18
aS'/wiki/Overfitting_(machine_learning)'
p19
aS'/wiki/Non-negative_matrix_factorization'
p20
aS'/wiki/Ensemble_learning'
p21
aS'/wiki/Generative_model'
p22
aS'/wiki/Mean-shift'
p23
aS'/wiki/Association_rule_learning'
p24
aS'/wiki/Early_stopping'
p25
aS'/wiki/Conditional_random_field'
p26
aS'/wiki/Naive_Bayes_classifier'
p27
aS'/wiki/Cross-validation_(statistics)'
p28
aS'/wiki/Support_Vector_Machines'
p29
aS'/wiki/Gaussian_process_regression'
p30
aS'/wiki/T-distributed_stochastic_neighbor_embedding'
p31
aS'/wiki/Random_forest'
p32
aS'/wiki/Semi-supervised_learning'
p33
aS'/wiki/Naive_bayes_classifier'
p34
aS'/wiki/Maximum_likelihood'
p35
aS'/wiki/Bayesian_network'
p36
aS'/wiki/Spamming'
p37
aS'/wiki/Principal_component_analysis'
p38
aS'/wiki/Proaftn'
p39
aS'/wiki/Support_vector_machine'
p40
aS'/wiki/Empirical_risk_minimization'
p41
aS'/wiki/Mehryar_Mohri'
p42
aS'/wiki/Expectation-maximization_algorithm'
p43
aS'/wiki/Inductive_logic_programming'
p44
aS'/wiki/Convolutional_neural_network'
p45
aS'/wiki/Structural_risk_minimization'
p46
aS'/wiki/Decision_tree'
p47
aS'/wiki/Bootstrap_aggregating'
p48
aS'/wiki/Optical_character_recognition'
p49
aS'/wiki/Anomaly_detection'
p50
aS'/wiki/Factor_analysis'
p51
aS'/wiki/Deterministic_noise'
p52
aS'/wiki/Statistical_relational_learning'
p53
aS'/wiki/No_free_lunch_in_search_and_optimization'
p54
aS'/wiki/Recurrent_neural_network'
p55
aS'/wiki/K-means_clustering'
p56
aS'/wiki/Online_machine_learning'
p57
aS'/wiki/Learning_to_rank'
p58
aS'/wiki/Journal_of_Machine_Learning_Research'
p59
aS'/wiki/Euclidean_norm'
p60
aS'/wiki/Probably_approximately_correct_learning'
p61
aS'/wiki/Relevance_vector_machine'
p62
aS'/wiki/Ripple_down_rules'
p63
aS'/wiki/Handwriting_recognition'
p64
aS'/wiki/K-nearest_neighbors_classification'
p65
aS'/wiki/K-nearest_neighbors_algorithm'
p66
aS'/wiki/International_Conference_on_Machine_Learning'
p67
aS'/wiki/Ensembles_of_Classifiers'
p68
aS'/wiki/Active_learning_(machine_learning)'
p69
aS'/wiki/Structured_prediction'
p70
aS'/wiki/Cluster_analysis'
p71
aS'/wiki/Unsupervised_learning'
p72
aS'/wiki/Backpropagation'
p73
aS'/wiki/BIRCH'
p74
aS'/wiki/Occam_learning'
p75
aS'/wiki/Grammar_induction'
p76
aS'/wiki/Local_outlier_factor'
p77
aS'/wiki/Generalization_error'
p78
aS'/wiki/Statistical_classification'
p79
aS'/wiki/Machine_learning'
p80
aS'/wiki/Feature_vector'
p81
aS'/wiki/Computational_learning_theory'
p82
aS'/wiki/Downward_causation'
p83
aS'/wiki/Minimum_message_length'
p84
aS'/wiki/Multilayer_perceptron'
p85
aS'/wiki/Artificial_neural_network'
p86
aS'/wiki/Curse_of_dimensionality'
p87
aS'/wiki/Optimization_(mathematics)'
p88
aS'/wiki/Data_Pre-processing'
p89
aS'/wiki/Conference_on_Neural_Information_Processing_Systems'
p90
aS'/wiki/Group_method_of_data_handling'
p91
aS'/wiki/Statistical_significance'
p92
aS'/wiki/Graphical_model'
p93
aS'/wiki/Bayesian_statistics'
p94
aS'/wiki/Independent_component_analysis'
p95
aS'/wiki/Cheminformatics'
p96
aS'/wiki/Posterior_probability'
p97
aS'/wiki/Bioinformatics'
p98
aS'/wiki/Data_mining'
p99
aS'/wiki/Regularization_(mathematics)'
p100
aS'/wiki/Logistic_regression'
p101
aS'/wiki/Speech_recognition'
p102
aS'/wiki/Dimensionality_reduction'
p103
aS'/wiki/Linear_discriminant_analysis'
p104
aS'/wiki/Ordinal_classification'
p105
aS'/wiki/Hidden_Markov_model'
p106
aS'/wiki/Case-based_reasoning'
p107
aS'/wiki/Class_membership_probabilities'
p108
aS'/wiki/Feature_engineering'
p109
aS'/wiki/OPTICS_algorithm'
p110
aS'/wiki/Restricted_Boltzmann_machine'
p111
aS'/wiki/Regression_analysis'
p112
aS'/wiki/Independent_and_identically-distributed_random_variables'
p113
aS'/wiki/Perceptron'
p114
aS'/wiki/DBSCAN'
p115
aS'/wiki/Decision_tree_learning'
p116
aS'/wiki/Self-organizing_map'
p117
aS'/wiki/Database_marketing'
p118
aS'/wiki/Boosting_(meta-algorithm)'
p119
aS'/wiki/Autoencoder'
p120
aS'/wiki/Learning_Automata'
p121
aS'/wiki/Deep_learning'
p122
aS'/wiki/Overfitting'
p123
aS'/wiki/Version_space'
p124
aS'/wiki/K-nearest_neighbor_algorithm'
p125
aS'/wiki/Training_set'
p126
aS'/wiki/Nearest_neighbor_(pattern_recognition)'
p127
aS'/wiki/Boosting_(machine_learning)'
p128
atp129
Rp130
.